; Function Attrs: mustprogress nounwind uwtable
define void @_ZNK5boost4urls14authority_view12encoded_userEv(ptr dead_on_unwind noalias nocapture writable writeonly sret(%"class.boost::urls::pct_string_view") align 8 %0, ptr noundef nonnull align 8 dereferenceable(184) %1) local_unnamed_addr #3 align 2 {
  %3 = getelementptr inbounds nuw i8, ptr %1, i64 8
  %4 = tail call { ptr, i64 } @_ZNK5boost4urls6detail8url_impl3getEi(ptr noundef nonnull align 8 dereferenceable(171) %3, i32 noundef 0) #28
  %5 = extractvalue { ptr, i64 } %4, 0
  %6 = extractvalue { ptr, i64 } %4, 1
  %7 = getelementptr inbounds nuw i8, ptr %1, i64 80
  %8 = load i64, ptr %7, align 8, !tbaa !38
  store ptr %5, ptr %0, align 8, !tbaa !54, !alias.scope !63
  %9 = getelementptr inbounds nuw i8, ptr %0, i64 8
  store i64 %6, ptr %9, align 8, !tbaa !59, !alias.scope !63
  %10 = getelementptr inbounds nuw i8, ptr %0, i64 16
  store i64 %8, ptr %10, align 8, !tbaa !60, !alias.scope !63
  ret void
}